; Function Attrs: nounwind uwtable
define dso_local void @block_source_close(ptr noundef captures(none) %0) local_unnamed_addr #0 {
  %2 = load ptr, ptr %0, align 8, !tbaa !4
  %.not = icmp eq ptr %2, null
  br i1 %.not, label %8, label %3

3:                                                ; preds = %1
  %4 = getelementptr inbounds nuw i8, ptr %2, i64 24
  %5 = load ptr, ptr %4, align 8, !tbaa !17
  %6 = getelementptr inbounds nuw i8, ptr %0, i64 8
  %7 = load ptr, ptr %6, align 8, !tbaa !12
  tail call void %5(ptr noundef %7) #12
  store ptr null, ptr %0, align 8, !tbaa !4
  br label %8

8:                                                ; preds = %1, %3
  ret void
}